; Function Attrs: mustprogress nofree norecurse nosync nounwind willreturn memory(argmem: read) uwtable
define hidden range(i32 0, 5) i32 @mbedtls_ssl_get_ciphersuite_sig_pk_alg(ptr noundef readonly captures(none) %0) local_unnamed_addr #6 {
  %2 = getelementptr inbounds nuw i8, ptr %0, i64 18
  %3 = load i8, ptr %2, align 2, !tbaa !18
  %switch.tableidx = add i8 %3, -1
  %4 = icmp ult i8 %switch.tableidx, 10
  br i1 %4, label %switch.lookup, label %6

switch.lookup:                                    ; preds = %1
  %5 = zext nneg i8 %switch.tableidx to i64
  %switch.gep = getelementptr inbounds nuw [10 x i32], ptr @switch.table.mbedtls_ssl_get_ciphersuite_sig_pk_alg, i64 0, i64 %5
  %switch.load = load i32, ptr %switch.gep, align 4
  br label %6

6:                                                ; preds = %1, %switch.lookup
  %.0 = phi i32 [ %switch.load, %switch.lookup ], [ 0, %1 ]
  ret i32 %.0
}